target datalayout = "e-m:e-p270:32:32-p271:32:32-p272:64:64-i64:64-i128:128-f80:128-n8:16:32:64-S128"
target triple = "x86_64-pc-linux-gnu"

%struct.LutContext = type { ptr, [4 x [65536 x i16]], [4 x ptr], [4 x ptr], i32, i32, [7 x double], i32, i32, i32, i32, i32 }

; Function Attrs: nounwind uwtable
define internal double @compute_gammaval709(ptr noundef %0, double noundef %1) #1 {
  %3 = alloca ptr, align 8
  %4 = alloca double, align 8
  %5 = alloca ptr, align 8
  %6 = alloca double, align 8
  %7 = alloca double, align 8
  %8 = alloca double, align 8
  %9 = alloca double, align 8
  store ptr %0, ptr %3, align 8, !tbaa !34
  store double %1, ptr %4, align 8, !tbaa !73
  call void @llvm.lifetime.start.p0(i64 8, ptr %5) #8
  %10 = load ptr, ptr %3, align 8, !tbaa !34
  store ptr %10, ptr %5, align 8, !tbaa !22
  call void @llvm.lifetime.start.p0(i64 8, ptr %6) #8
  %11 = load ptr, ptr %5, align 8, !tbaa !22
  %12 = getelementptr inbounds nuw %struct.LutContext, ptr %11, i32 0, i32 6
  %13 = getelementptr inbounds [7 x double], ptr %12, i64 0, i64 6
  %14 = load double, ptr %13, align 8, !tbaa !73
  store double %14, ptr %6, align 8, !tbaa !73
  call void @llvm.lifetime.start.p0(i64 8, ptr %7) #8
  %15 = load ptr, ptr %5, align 8, !tbaa !22
  %16 = getelementptr inbounds nuw %struct.LutContext, ptr %15, i32 0, i32 6
  %17 = getelementptr inbounds [7 x double], ptr %16, i64 0, i64 4
  %18 = load double, ptr %17, align 8, !tbaa !73
  store double %18, ptr %7, align 8, !tbaa !73
  call void @llvm.lifetime.start.p0(i64 8, ptr %8) #8
  %19 = load ptr, ptr %5, align 8, !tbaa !22
  %20 = getelementptr inbounds nuw %struct.LutContext, ptr %19, i32 0, i32 6
  %21 = getelementptr inbounds [7 x double], ptr %20, i64 0, i64 3
  %22 = load double, ptr %21, align 8, !tbaa !73
  store double %22, ptr %8, align 8, !tbaa !73
  call void @llvm.lifetime.start.p0(i64 8, ptr %9) #8
  %23 = load double, ptr %6, align 8, !tbaa !73
  %24 = load double, ptr %7, align 8, !tbaa !73
  %25 = fsub nsz double %23, %24
  %26 = load double, ptr %8, align 8, !tbaa !73
  %27 = load double, ptr %7, align 8, !tbaa !73
  %28 = fsub nsz double %26, %27
  %29 = fdiv nsz double %25, %28
  store double %29, ptr %9, align 8, !tbaa !73
  %30 = load double, ptr %9, align 8, !tbaa !73
  %31 = fcmp nsz olt double %30, 1.800000e-02
  br i1 %31, label %32, label %35

32:                                               ; preds = %2
  %33 = load double, ptr %9, align 8, !tbaa !73
  %34 = fmul nsz double 4.500000e+00, %33
  br label %41

35:                                               ; preds = %2
  %36 = load double, ptr %9, align 8, !tbaa !73
  %37 = load double, ptr %4, align 8, !tbaa !73
  %38 = fdiv nsz double 1.000000e+00, %37
  %39 = call nsz double @llvm.pow.f64(double %36, double %38)
  %40 = call nsz double @llvm.fmuladd.f64(double 1.099000e+00, double %39, double -9.900000e-02)
  br label %41

41:                                               ; preds = %35, %32
  %42 = phi nsz double [ %34, %32 ], [ %40, %35 ]
  store double %42, ptr %9, align 8, !tbaa !73
  %43 = load double, ptr %9, align 8, !tbaa !73
  %44 = load double, ptr %8, align 8, !tbaa !73
  %45 = load double, ptr %7, align 8, !tbaa !73
  %46 = fsub nsz double %44, %45
  %47 = load double, ptr %7, align 8, !tbaa !73
  %48 = call nsz double @llvm.fmuladd.f64(double %43, double %46, double %47)
  call void @llvm.lifetime.end.p0(i64 8, ptr %9) #8
  call void @llvm.lifetime.end.p0(i64 8, ptr %8) #8
  call void @llvm.lifetime.end.p0(i64 8, ptr %7) #8
  call void @llvm.lifetime.end.p0(i64 8, ptr %6) #8
  call void @llvm.lifetime.end.p0(i64 8, ptr %5) #8
  ret double %48
}