; Function Attrs: mustprogress nofree norecurse nosync nounwind willreturn memory(argmem: read) uwtable
define internal double @compute_gammaval709(ptr noundef readonly captures(none) %0, double noundef %1) #7 {
  %3 = getelementptr inbounds nuw i8, ptr %0, i64 524416
  %4 = load double, ptr %3, align 8, !tbaa !63
  %5 = getelementptr inbounds nuw i8, ptr %0, i64 524400
  %6 = load double, ptr %5, align 8, !tbaa !63
  %7 = getelementptr inbounds nuw i8, ptr %0, i64 524392
  %8 = load double, ptr %7, align 8, !tbaa !63
  %9 = fsub nsz double %4, %6
  %10 = fsub nsz double %8, %6
  %11 = fdiv nsz double %9, %10
  %12 = fcmp nsz olt double %11, 1.800000e-02
  br i1 %12, label %13, label %15

13:                                               ; preds = %2
  %14 = fmul nsz double %11, 4.500000e+00
  br label %19

15:                                               ; preds = %2
  %16 = fdiv nsz double 1.000000e+00, %1
  %17 = tail call nsz double @llvm.pow.f64(double %11, double %16)
  %18 = tail call nsz double @llvm.fmuladd.f64(double %17, double 1.099000e+00, double -9.900000e-02)
  br label %19

19:                                               ; preds = %15, %13
  %20 = phi nsz double [ %14, %13 ], [ %18, %15 ]
  %21 = tail call nsz double @llvm.fmuladd.f64(double %20, double %10, double %6)
  ret double %21
}